target datalayout = "e-m:e-p270:32:32-p271:32:32-p272:64:64-i64:64-i128:128-f80:128-n8:16:32:64-S128"
target triple = "x86_64-pc-linux-gnu"

; Function Attrs: alwaysinline nounwind willreturn memory(none) uwtable
define internal i32 @av_clip_c(i32 noundef %0, i32 noundef %1, i32 noundef %2) #6 {
  %4 = alloca i32, align 4
  %5 = alloca i32, align 4
  %6 = alloca i32, align 4
  %7 = alloca i32, align 4
  store i32 %0, ptr %5, align 4, !tbaa !9
  store i32 %1, ptr %6, align 4, !tbaa !9
  store i32 %2, ptr %7, align 4, !tbaa !9
  %8 = load i32, ptr %5, align 4, !tbaa !9
  %9 = load i32, ptr %6, align 4, !tbaa !9
  %10 = icmp slt i32 %8, %9
  br i1 %10, label %11, label %13

11:                                               ; preds = %3
  %12 = load i32, ptr %6, align 4, !tbaa !9
  store i32 %12, ptr %4, align 4
  br label %21

13:                                               ; preds = %3
  %14 = load i32, ptr %5, align 4, !tbaa !9
  %15 = load i32, ptr %7, align 4, !tbaa !9
  %16 = icmp sgt i32 %14, %15
  br i1 %16, label %17, label %19

17:                                               ; preds = %13
  %18 = load i32, ptr %7, align 4, !tbaa !9
  store i32 %18, ptr %4, align 4
  br label %21

19:                                               ; preds = %13
  %20 = load i32, ptr %5, align 4, !tbaa !9
  store i32 %20, ptr %4, align 4
  br label %21

21:                                               ; preds = %19, %17, %11
  %22 = load i32, ptr %4, align 4
  ret i32 %22
}

; Function Attrs: nounwind uwtable
define void @ff_decode_pitch_lag(ptr noundef %0, ptr noundef %1, i32 noundef %2, i32 noundef %3, i32 noundef %4, i32 noundef %5, i32 noundef %6) #0 {
  %8 = alloca ptr, align 8
  %9 = alloca ptr, align 8
  %10 = alloca i32, align 4
  %11 = alloca i32, align 4
  %12 = alloca i32, align 4
  %13 = alloca i32, align 4
  %14 = alloca i32, align 4
  %15 = alloca i32, align 4
  store ptr %0, ptr %8, align 8, !tbaa !26
  store ptr %1, ptr %9, align 8, !tbaa !26
  store i32 %2, ptr %10, align 4, !tbaa !9
  store i32 %3, ptr %11, align 4, !tbaa !9
  store i32 %4, ptr %12, align 4, !tbaa !9
  store i32 %5, ptr %13, align 4, !tbaa !9
  store i32 %6, ptr %14, align 4, !tbaa !9
  %16 = load i32, ptr %12, align 4, !tbaa !9
  %17 = icmp eq i32 %16, 0
  br i1 %17, label %24, label %18

18:                                               ; preds = %7
  %19 = load i32, ptr %12, align 4, !tbaa !9
  %20 = icmp eq i32 %19, 2
  br i1 %20, label %21, label %35

21:                                               ; preds = %18
  %22 = load i32, ptr %13, align 4, !tbaa !9
  %23 = icmp ne i32 %22, 0
  br i1 %23, label %24, label %35

24:                                               ; preds = %21, %7
  %25 = load i32, ptr %10, align 4, !tbaa !9
  %26 = icmp slt i32 %25, 197
  br i1 %26, label %27, label %30

27:                                               ; preds = %24
  %28 = load i32, ptr %10, align 4, !tbaa !9
  %29 = add nsw i32 %28, 59
  store i32 %29, ptr %10, align 4, !tbaa !9
  br label %34

30:                                               ; preds = %24
  %31 = load i32, ptr %10, align 4, !tbaa !9
  %32 = mul nsw i32 3, %31
  %33 = sub nsw i32 %32, 335
  store i32 %33, ptr %10, align 4, !tbaa !9
  br label %34

34:                                               ; preds = %30, %27
  br label %89

35:                                               ; preds = %21, %18
  %36 = load i32, ptr %14, align 4, !tbaa !9
  %37 = icmp eq i32 %36, 4
  br i1 %37, label %38, label %68

38:                                               ; preds = %35
  call void @llvm.lifetime.start.p0(i64 4, ptr %15) #7
  %39 = load i32, ptr %11, align 4, !tbaa !9
  %40 = sub nsw i32 %39, 5
  %41 = call i32 @av_clip_c(i32 noundef %40, i32 noundef 20, i32 noundef 134) #8
  store i32 %41, ptr %15, align 4, !tbaa !9
  %42 = load i32, ptr %10, align 4, !tbaa !9
  %43 = icmp slt i32 %42, 4
  br i1 %43, label %44, label %50

44:                                               ; preds = %38
  %45 = load i32, ptr %10, align 4, !tbaa !9
  %46 = load i32, ptr %15, align 4, !tbaa !9
  %47 = add nsw i32 %45, %46
  %48 = mul nsw i32 3, %47
  %49 = add nsw i32 %48, 1
  store i32 %49, ptr %10, align 4, !tbaa !9
  br label %67

50:                                               ; preds = %38
  %51 = load i32, ptr %10, align 4, !tbaa !9
  %52 = icmp slt i32 %51, 12
  br i1 %52, label %53, label %59

53:                                               ; preds = %50
  %54 = load i32, ptr %15, align 4, !tbaa !9
  %55 = mul nsw i32 3, %54
  %56 = add nsw i32 %55, 7
  %57 = load i32, ptr %10, align 4, !tbaa !9
  %58 = add nsw i32 %57, %56
  store i32 %58, ptr %10, align 4, !tbaa !9
  br label %66

59:                                               ; preds = %50
  %60 = load i32, ptr %10, align 4, !tbaa !9
  %61 = load i32, ptr %15, align 4, !tbaa !9
  %62 = add nsw i32 %60, %61
  %63 = sub nsw i32 %62, 6
  %64 = mul nsw i32 3, %63
  %65 = add nsw i32 %64, 1
  store i32 %65, ptr %10, align 4, !tbaa !9
  br label %66

66:                                               ; preds = %59, %53
  br label %67

67:                                               ; preds = %66, %44
  call void @llvm.lifetime.end.p0(i64 4, ptr %15) #7
  br label %88

68:                                               ; preds = %35
  %69 = load i32, ptr %10, align 4, !tbaa !9
  %70 = add nsw i32 %69, -1
  store i32 %70, ptr %10, align 4, !tbaa !9
  %71 = load i32, ptr %14, align 4, !tbaa !9
  %72 = icmp eq i32 %71, 5
  br i1 %72, label %73, label %80

73:                                               ; preds = %68
  %74 = load i32, ptr %11, align 4, !tbaa !9
  %75 = sub nsw i32 %74, 10
  %76 = call i32 @av_clip_c(i32 noundef %75, i32 noundef 20, i32 noundef 124) #8
  %77 = mul nsw i32 3, %76
  %78 = load i32, ptr %10, align 4, !tbaa !9
  %79 = add nsw i32 %78, %77
  store i32 %79, ptr %10, align 4, !tbaa !9
  br label %87

80:                                               ; preds = %68
  %81 = load i32, ptr %11, align 4, !tbaa !9
  %82 = sub nsw i32 %81, 5
  %83 = call i32 @av_clip_c(i32 noundef %82, i32 noundef 20, i32 noundef 134) #8
  %84 = mul nsw i32 3, %83
  %85 = load i32, ptr %10, align 4, !tbaa !9
  %86 = add nsw i32 %85, %84
  store i32 %86, ptr %10, align 4, !tbaa !9
  br label %87

87:                                               ; preds = %80, %73
  br label %88

88:                                               ; preds = %87, %67
  br label %89

89:                                               ; preds = %88, %34
  %90 = load i32, ptr %10, align 4, !tbaa !9
  %91 = mul nsw i32 %90, 10923
  %92 = ashr i32 %91, 15
  %93 = load ptr, ptr %8, align 8, !tbaa !26
  store i32 %92, ptr %93, align 4, !tbaa !9
  %94 = load i32, ptr %10, align 4, !tbaa !9
  %95 = load ptr, ptr %8, align 8, !tbaa !26
  %96 = load i32, ptr %95, align 4, !tbaa !9
  %97 = mul nsw i32 3, %96
  %98 = sub nsw i32 %94, %97
  %99 = sub nsw i32 %98, 1
  %100 = load ptr, ptr %9, align 8, !tbaa !26
  store i32 %99, ptr %100, align 4, !tbaa !9
  ret void
}