; Function Attrs: mustprogress nofree norecurse nosync nounwind willreturn memory(argmem: write) uwtable
define void @ff_decode_pitch_lag(ptr noundef writeonly captures(none) initializes((0, 4)) %0, ptr noundef writeonly captures(none) initializes((0, 4)) %1, i32 noundef %2, i32 noundef %3, i32 noundef %4, i32 noundef %5, i32 noundef %6) local_unnamed_addr #4 {
  %8 = icmp eq i32 %4, 0
  br i1 %8, label %12, label %9

9:                                                ; preds = %7
  %10 = icmp eq i32 %4, 2
  %11 = icmp ne i32 %5, 0
  %or.cond = and i1 %10, %11
  br i1 %or.cond, label %12, label %19

12:                                               ; preds = %9, %7
  %13 = icmp slt i32 %2, 197
  br i1 %13, label %14, label %16

14:                                               ; preds = %12
  %15 = add nsw i32 %2, 59
  br label %54

16:                                               ; preds = %12
  %17 = mul nuw nsw i32 %2, 3
  %18 = add nsw i32 %17, -335
  br label %54

19:                                               ; preds = %9
  %20 = icmp eq i32 %6, 4
  br i1 %20, label %21, label %39

21:                                               ; preds = %19
  %22 = add nsw i32 %3, -5
  %23 = icmp slt i32 %3, 25
  %..i = tail call i32 @llvm.umin.i32(i32 %22, i32 134)
  %.0.i = select i1 %23, i32 20, i32 %..i
  %24 = icmp slt i32 %2, 4
  br i1 %24, label %25, label %29

25:                                               ; preds = %21
  %26 = add nsw i32 %.0.i, %2
  %27 = mul nsw i32 %26, 3
  %28 = add nsw i32 %27, 1
  br label %54

29:                                               ; preds = %21
  %30 = icmp samesign ult i32 %2, 12
  br i1 %30, label %31, label %35

31:                                               ; preds = %29
  %32 = mul nuw nsw i32 %.0.i, 3
  %33 = add nuw nsw i32 %2, 7
  %34 = add nuw nsw i32 %33, %32
  br label %54

35:                                               ; preds = %29
  %36 = add nuw nsw i32 %.0.i, %2
  %37 = mul i32 %36, 3
  %38 = add i32 %37, -17
  br label %54

39:                                               ; preds = %19
  %40 = add nsw i32 %2, -1
  %41 = icmp eq i32 %6, 5
  br i1 %41, label %42, label %48

42:                                               ; preds = %39
  %43 = add nsw i32 %3, -10
  %44 = icmp slt i32 %3, 30
  %..i31 = tail call i32 @llvm.umin.i32(i32 %43, i32 124)
  %45 = mul nuw nsw i32 %..i31, 3
  %46 = select i1 %44, i32 60, i32 %45
  %47 = add nsw i32 %46, %40
  br label %54

48:                                               ; preds = %39
  %49 = add nsw i32 %3, -5
  %50 = icmp slt i32 %3, 25
  %..i33 = tail call i32 @llvm.umin.i32(i32 %49, i32 134)
  %51 = mul nuw nsw i32 %..i33, 3
  %52 = select i1 %50, i32 60, i32 %51
  %53 = add nsw i32 %52, %40
  br label %54

54:                                               ; preds = %25, %35, %31, %48, %42, %14, %16
  %.0 = phi i32 [ %15, %14 ], [ %18, %16 ], [ %47, %42 ], [ %53, %48 ], [ %28, %25 ], [ %34, %31 ], [ %38, %35 ]
  %55 = mul nsw i32 %.0, 10923
  %56 = ashr i32 %55, 15
  store i32 %56, ptr %0, align 4, !tbaa !16
  %.neg = mul nsw i32 %56, -3
  %57 = add i32 %.0, -1
  %58 = add i32 %57, %.neg
  store i32 %58, ptr %1, align 4, !tbaa !16
  ret void
}